(dp0
S'A'
p1
ccopy_reg
_reconstructor
p2
(csympy.matrices.dense
MutableDenseMatrix
p3
c__builtin__
object
p4
Ntp5
Rp6
(dp7
S'rows'
p8
I2
sS'_mat'
p9
(lp10
csympy.core.numbers
Zero
p11
(tRp12
(dp13
bacsympy.core.numbers
One
p14
(tRp15
(dp16
bacsympy.core.mul
Mul
p17
(csympy.core.symbol
Symbol
p18
(S'g'
p19
tp20
Rp21
(dp22
S'_assumptions'
p23
g2
(csympy.core.assumptions
StdFactKB
p24
c__builtin__
dict
p25
(dp26
S'real'
p27
NsS'commutative'
p28
I01
sS'antihermitian'
p29
NsS'nonpositive'
p30
NsS'positive'
p31
NsS'negative'
p32
NsS'nonnegative'
p33
NsS'hermitian'
p34
NsS'zero'
p35
NsS'bounded'
p36
NsS'rational'
p37
NsS'imaginary'
p38
NsS'irrational'
p39
Nstp40
Rp41
sbcsympy.core.power
Pow
p42
(g18
(S'l'
p43
tp44
Rp45
(dp46
g23
g2
(g24
g25
(dp47
g27
NsS'polar'
p48
Nsg39
Nsg29
Nsg30
NsS'unbounded'
p49
Nsg34
Nsg36
NsS'integer'
p50
Nsg38
NsS'complex'
p51
NsS'odd'
p52
NsS'even'
p53
Nsg28
I01
sg35
Nsg31
Nsg32
Nsg33
NsS'infinitesimal'
p54
Nsg37
Nstp55
Rp56
sbcsympy.core.numbers
NegativeOne
p57
(tRp58
(dp59
btp60
Rp61
(dp62
bcsympy.functions.elementary.trigonometric
cos
p63
(c__main__
theta
p64
(g18
(S't'
p65
tp66
Rp67
(dp68
g23
g2
(g24
g25
(dp69
g31
Nsg51
Nsg28
I01
sg32
Nstp70
Rp71
sbtp72
Rp73
(dp74
btp75
Rp76
(dp77
btp78
Rp79
(dp80
bag12
asS'cols'
p81
I2
sbsS'B'
p82
g2
(g3
g4
Ntp83
Rp84
(dp85
g8
I2
sg9
(lp86
g12
ag17
(g42
(g45
csympy.core.numbers
Integer
p87
(I-2
tp88
Rp89
(dp90
btp91
Rp92
(dp93
bg42
(g18
(S'm'
p94
tp95
Rp96
(dp97
g23
g2
(g24
g25
(dp98
g27
Nsg48
Nsg28
I01
sg29
Nsg30
Nsg31
Nsg32
Nsg33
Nsg34
Nsg35
Nsg36
Nsg37
Nsg50
Nsg38
Nsg39
Nstp99
Rp100
sbg58
tp101
Rp102
(dp103
btp104
Rp105
(dp106
basg81
I1
sbsS'rhs'
p107
g2
(g3
g4
Ntp108
Rp109
(dp110
g8
I2
sg9
(lp111
csympy.core.function
Derivative
p112
(g73
g67
tp113
Rp114
(dp115
bag17
(g92
g102
csympy.core.add
Add
p116
(g17
(g21
g45
g96
csympy.functions.elementary.trigonometric
sin
p117
(g73
tp118
Rp119
(dp120
btp121
Rp122
(dp123
bc__main__
tau
p124
(g67
tp125
Rp126
(dp127
btp128
Rp129
(dp130
btp131
Rp132
(dp133
basg81
I1
sbsS'u_vect'
p134
g2
(g3
g4
Ntp135
Rp136
(dp137
g8
I1
sg9
(lp138
g126
asg81
I1
sbsS'x_vect'
p139
g2
(g3
g4
Ntp140
Rp141
(dp142
g8
I2
sg9
(lp143
g73
ag112
(g73
g67
tp144
Rp145
(dp146
basg81
I1
sbsg19
g21
sg94
g96
sg43
g45
sS'ss_subs'
p147
(dp148
g126
g18
(S'u[0]'
p149
tp150
Rp151
(dp152
g23
g2
(g24
g25
(dp153
g28
I01
stp154
Rp155
sbsg112
(g73
g67
tp156
Rp157
(dp158
bg18
(S'x[1]'
p159
tp160
Rp161
(dp162
g23
g2
(g24
g25
(dp163
g28
I01
stp164
Rp165
sbsg73
g18
(S'x[0]'
p166
tp167
Rp168
(dp169
g23
g2
(g24
g25
(dp170
g28
I01
stp171
Rp172
sbssS'u'
p173
csympy.matrices.matrices
DeferredVector
p174
(g173
tp175
Rp176
(dp177
g23
g2
(g24
g25
(dp178
g28
I01
stp179
Rp180
sbsS'x'
p181
g174
(g181
tp182
Rp183
(dp184
g23
g2
(g24
g25
(dp185
g28
I01
stp186
Rp187
sbs.